target datalayout = "e-m:e-p270:32:32-p271:32:32-p272:64:64-i64:64-i128:128-f80:128-n8:16:32:64-S128"
target triple = "x86_64-pc-linux-gnu"

%"class.draco::PointCloudEncoder" = type { ptr, ptr, %"class.std::vector", %"class.std::vector.0", %"class.std::vector.0", ptr, ptr, i64 }
%"class.std::vector" = type { %"struct.std::_Vector_base" }
%"struct.std::_Vector_base" = type { %"struct.std::_Vector_base<std::unique_ptr<draco::AttributesEncoder>, std::allocator<std::unique_ptr<draco::AttributesEncoder>>>::_Vector_impl" }
%"struct.std::_Vector_base<std::unique_ptr<draco::AttributesEncoder>, std::allocator<std::unique_ptr<draco::AttributesEncoder>>>::_Vector_impl" = type { %"struct.std::_Vector_base<std::unique_ptr<draco::AttributesEncoder>, std::allocator<std::unique_ptr<draco::AttributesEncoder>>>::_Vector_impl_data" }
%"struct.std::_Vector_base<std::unique_ptr<draco::AttributesEncoder>, std::allocator<std::unique_ptr<draco::AttributesEncoder>>>::_Vector_impl_data" = type { ptr, ptr, ptr }
%"class.std::vector.0" = type { %"struct.std::_Vector_base.1" }
%"struct.std::_Vector_base.1" = type { %"struct.std::_Vector_base<int, std::allocator<int>>::_Vector_impl" }
%"struct.std::_Vector_base<int, std::allocator<int>>::_Vector_impl" = type { %"struct.std::_Vector_base<int, std::allocator<int>>::_Vector_impl_data" }
%"struct.std::_Vector_base<int, std::allocator<int>>::_Vector_impl_data" = type { ptr, ptr, ptr }
%"class.draco::PointCloud" = type <{ ptr, %"class.std::unique_ptr", %"class.std::vector.7", [5 x %"class.std::vector.0"], i32, [4 x i8] }>
%"class.std::unique_ptr" = type { %"struct.std::__uniq_ptr_data" }
%"struct.std::__uniq_ptr_data" = type { %"class.std::__uniq_ptr_impl" }
%"class.std::__uniq_ptr_impl" = type { %"class.std::tuple" }
%"class.std::tuple" = type { %"struct.std::_Tuple_impl" }
%"struct.std::_Tuple_impl" = type { %"struct.std::_Head_base.6" }
%"struct.std::_Head_base.6" = type { ptr }
%"class.std::vector.7" = type { %"struct.std::_Vector_base.8" }
%"struct.std::_Vector_base.8" = type { %"struct.std::_Vector_base<std::unique_ptr<draco::PointAttribute>, std::allocator<std::unique_ptr<draco::PointAttribute>>>::_Vector_impl" }
%"struct.std::_Vector_base<std::unique_ptr<draco::PointAttribute>, std::allocator<std::unique_ptr<draco::PointAttribute>>>::_Vector_impl" = type { %"struct.std::_Vector_base<std::unique_ptr<draco::PointAttribute>, std::allocator<std::unique_ptr<draco::PointAttribute>>>::_Vector_impl_data" }
%"struct.std::_Vector_base<std::unique_ptr<draco::PointAttribute>, std::allocator<std::unique_ptr<draco::PointAttribute>>>::_Vector_impl_data" = type { ptr, ptr, ptr }
%"class.std::unique_ptr.36" = type { %"struct.std::__uniq_ptr_data.37" }
%"struct.std::__uniq_ptr_data.37" = type { %"class.std::__uniq_ptr_impl.38" }
%"class.std::__uniq_ptr_impl.38" = type { %"class.std::tuple.39" }
%"class.std::tuple.39" = type { %"struct.std::_Tuple_impl.40" }
%"struct.std::_Tuple_impl.40" = type { %"struct.std::_Head_base.43" }
%"struct.std::_Head_base.43" = type { ptr }

; Function Attrs: mustprogress nounwind uwtable
define linkonce_odr noundef nonnull align 8 dereferenceable(8) ptr @_ZNSt10_Head_baseILm0EPN5draco17AttributesEncoderELb0EE7_M_headERKS3_(ptr noundef nonnull align 8 dereferenceable(8) %0) #4 comdat align 2 {
  %2 = alloca ptr, align 8
  store ptr %0, ptr %2, align 8
  %3 = load ptr, ptr %2, align 8
  %4 = getelementptr inbounds %"struct.std::_Head_base.43", ptr %3, i32 0, i32 0
  ret ptr %4
}

; Function Attrs: mustprogress nounwind uwtable
define linkonce_odr noundef nonnull align 8 dereferenceable(8) ptr @_ZNSt11_Tuple_implILm0EJPN5draco17AttributesEncoderESt14default_deleteIS1_EEE7_M_headERKS5_(ptr noundef nonnull align 8 dereferenceable(8) %0) #4 comdat align 2 {
  %2 = alloca ptr, align 8
  store ptr %0, ptr %2, align 8
  %3 = load ptr, ptr %2, align 8
  %4 = call noundef nonnull align 8 dereferenceable(8) ptr @_ZNSt10_Head_baseILm0EPN5draco17AttributesEncoderELb0EE7_M_headERKS3_(ptr noundef nonnull align 8 dereferenceable(8) %3) #3
  ret ptr %4
}

; Function Attrs: mustprogress nounwind uwtable
define linkonce_odr noundef nonnull align 8 dereferenceable(8) ptr @_ZSt12__get_helperILm0EPN5draco17AttributesEncoderEJSt14default_deleteIS1_EEERKT0_RKSt11_Tuple_implIXT_EJS5_DpT1_EE(ptr noundef nonnull align 8 dereferenceable(8) %0) #4 comdat {
  %2 = alloca ptr, align 8
  store ptr %0, ptr %2, align 8
  %3 = load ptr, ptr %2, align 8
  %4 = call noundef nonnull align 8 dereferenceable(8) ptr @_ZNSt11_Tuple_implILm0EJPN5draco17AttributesEncoderESt14default_deleteIS1_EEE7_M_headERKS5_(ptr noundef nonnull align 8 dereferenceable(8) %3) #3
  ret ptr %4
}

; Function Attrs: mustprogress nounwind uwtable
define linkonce_odr noundef nonnull align 8 dereferenceable(8) ptr @_ZSt3getILm0EJPN5draco17AttributesEncoderESt14default_deleteIS1_EEERKNSt13tuple_elementIXT_ESt5tupleIJDpT0_EEE4typeERKS9_(ptr noundef nonnull align 8 dereferenceable(8) %0) #4 comdat {
  %2 = alloca ptr, align 8
  store ptr %0, ptr %2, align 8
  %3 = load ptr, ptr %2, align 8
  %4 = call noundef nonnull align 8 dereferenceable(8) ptr @_ZSt12__get_helperILm0EPN5draco17AttributesEncoderEJSt14default_deleteIS1_EEERKT0_RKSt11_Tuple_implIXT_EJS5_DpT1_EE(ptr noundef nonnull align 8 dereferenceable(8) %3) #3
  ret ptr %4
}

; Function Attrs: mustprogress nounwind uwtable
define linkonce_odr noundef ptr @_ZNKSt15__uniq_ptr_implIN5draco17AttributesEncoderESt14default_deleteIS1_EE6_M_ptrEv(ptr noundef nonnull align 8 dereferenceable(8) %0) #4 comdat align 2 {
  %2 = alloca ptr, align 8
  store ptr %0, ptr %2, align 8
  %3 = load ptr, ptr %2, align 8
  %4 = getelementptr inbounds %"class.std::__uniq_ptr_impl.38", ptr %3, i32 0, i32 0
  %5 = call noundef nonnull align 8 dereferenceable(8) ptr @_ZSt3getILm0EJPN5draco17AttributesEncoderESt14default_deleteIS1_EEERKNSt13tuple_elementIXT_ESt5tupleIJDpT0_EEE4typeERKS9_(ptr noundef nonnull align 8 dereferenceable(8) %4) #3
  %6 = load ptr, ptr %5, align 8
  ret ptr %6
}

; Function Attrs: mustprogress nounwind uwtable
define linkonce_odr noundef ptr @_ZNKSt10unique_ptrIN5draco17AttributesEncoderESt14default_deleteIS1_EE3getEv(ptr noundef nonnull align 8 dereferenceable(8) %0) #4 comdat align 2 {
  %2 = alloca ptr, align 8
  store ptr %0, ptr %2, align 8
  %3 = load ptr, ptr %2, align 8
  %4 = getelementptr inbounds %"class.std::unique_ptr.36", ptr %3, i32 0, i32 0
  %5 = call noundef ptr @_ZNKSt15__uniq_ptr_implIN5draco17AttributesEncoderESt14default_deleteIS1_EE6_M_ptrEv(ptr noundef nonnull align 8 dereferenceable(8) %4) #3
  ret ptr %5
}

; Function Attrs: mustprogress nounwind uwtable
define linkonce_odr noundef i64 @_ZNKSt6vectorISt10unique_ptrIN5draco14PointAttributeESt14default_deleteIS2_EESaIS5_EE4sizeEv(ptr noundef nonnull align 8 dereferenceable(24) %0) #4 comdat align 2 {
  %2 = alloca ptr, align 8
  store ptr %0, ptr %2, align 8
  %3 = load ptr, ptr %2, align 8
  %4 = getelementptr inbounds %"struct.std::_Vector_base.8", ptr %3, i32 0, i32 0
  %5 = getelementptr inbounds %"struct.std::_Vector_base<std::unique_ptr<draco::PointAttribute>, std::allocator<std::unique_ptr<draco::PointAttribute>>>::_Vector_impl_data", ptr %4, i32 0, i32 1
  %6 = load ptr, ptr %5, align 8
  %7 = getelementptr inbounds %"struct.std::_Vector_base.8", ptr %3, i32 0, i32 0
  %8 = getelementptr inbounds %"struct.std::_Vector_base<std::unique_ptr<draco::PointAttribute>, std::allocator<std::unique_ptr<draco::PointAttribute>>>::_Vector_impl_data", ptr %7, i32 0, i32 0
  %9 = load ptr, ptr %8, align 8
  %10 = ptrtoint ptr %6 to i64
  %11 = ptrtoint ptr %9 to i64
  %12 = sub i64 %10, %11
  %13 = sdiv exact i64 %12, 8
  ret i64 %13
}

; Function Attrs: mustprogress nounwind uwtable
define linkonce_odr noundef ptr @_ZNKSt10unique_ptrIN5draco17AttributesEncoderESt14default_deleteIS1_EEptEv(ptr noundef nonnull align 8 dereferenceable(8) %0) #4 comdat align 2 {
  %2 = alloca ptr, align 8
  store ptr %0, ptr %2, align 8
  %3 = load ptr, ptr %2, align 8
  %4 = call noundef ptr @_ZNKSt10unique_ptrIN5draco17AttributesEncoderESt14default_deleteIS1_EE3getEv(ptr noundef nonnull align 8 dereferenceable(8) %3) #3
  ret ptr %4
}

; Function Attrs: mustprogress nounwind uwtable
define linkonce_odr noundef nonnull align 8 dereferenceable(8) ptr @_ZNSt6vectorISt10unique_ptrIN5draco17AttributesEncoderESt14default_deleteIS2_EESaIS5_EEixEm(ptr noundef nonnull align 8 dereferenceable(24) %0, i64 noundef %1) #4 comdat align 2 {
  %3 = alloca ptr, align 8
  %4 = alloca i64, align 8
  store ptr %0, ptr %3, align 8
  store i64 %1, ptr %4, align 8
  %5 = load ptr, ptr %3, align 8
  %6 = getelementptr inbounds %"struct.std::_Vector_base", ptr %5, i32 0, i32 0
  %7 = getelementptr inbounds %"struct.std::_Vector_base<std::unique_ptr<draco::AttributesEncoder>, std::allocator<std::unique_ptr<draco::AttributesEncoder>>>::_Vector_impl_data", ptr %6, i32 0, i32 0
  %8 = load ptr, ptr %7, align 8
  %9 = load i64, ptr %4, align 8
  %10 = getelementptr inbounds %"class.std::unique_ptr.36", ptr %8, i64 %9
  ret ptr %10
}

; Function Attrs: mustprogress nounwind uwtable
define linkonce_odr noundef nonnull align 4 dereferenceable(4) ptr @_ZNSt6vectorIiSaIiEEixEm(ptr noundef nonnull align 8 dereferenceable(24) %0, i64 noundef %1) #4 comdat align 2 {
  %3 = alloca ptr, align 8
  %4 = alloca i64, align 8
  store ptr %0, ptr %3, align 8
  store i64 %1, ptr %4, align 8
  %5 = load ptr, ptr %3, align 8
  %6 = getelementptr inbounds %"struct.std::_Vector_base.1", ptr %5, i32 0, i32 0
  %7 = getelementptr inbounds %"struct.std::_Vector_base<int, std::allocator<int>>::_Vector_impl_data", ptr %6, i32 0, i32 0
  %8 = load ptr, ptr %7, align 8
  %9 = load i64, ptr %4, align 8
  %10 = getelementptr inbounds i32, ptr %8, i64 %9
  ret ptr %10
}

; Function Attrs: mustprogress nounwind uwtable
define linkonce_odr noundef i32 @_ZNK5draco10PointCloud14num_attributesEv(ptr noundef nonnull align 8 dereferenceable(164) %0) #4 comdat align 2 {
  %2 = alloca ptr, align 8
  store ptr %0, ptr %2, align 8
  %3 = load ptr, ptr %2, align 8
  %4 = getelementptr inbounds %"class.draco::PointCloud", ptr %3, i32 0, i32 2
  %5 = call noundef i64 @_ZNKSt6vectorISt10unique_ptrIN5draco14PointAttributeESt14default_deleteIS2_EESaIS5_EE4sizeEv(ptr noundef nonnull align 8 dereferenceable(24) %4) #3
  %6 = trunc i64 %5 to i32
  ret i32 %6
}

; Function Attrs: mustprogress uwtable
define noundef ptr @_ZN5draco17PointCloudEncoder20GetPortableAttributeEi(ptr noundef nonnull align 8 dereferenceable(112) %0, i32 noundef %1) #5 align 2 {
  %3 = alloca ptr, align 8
  %4 = alloca ptr, align 8
  %5 = alloca i32, align 4
  %6 = alloca i32, align 4
  store ptr %0, ptr %4, align 8
  store i32 %1, ptr %5, align 4
  %7 = load ptr, ptr %4, align 8
  %8 = load i32, ptr %5, align 4
  %9 = icmp slt i32 %8, 0
  br i1 %9, label %16, label %10

10:                                               ; preds = %2
  %11 = load i32, ptr %5, align 4
  %12 = getelementptr inbounds %"class.draco::PointCloudEncoder", ptr %7, i32 0, i32 1
  %13 = load ptr, ptr %12, align 8
  %14 = call noundef i32 @_ZNK5draco10PointCloud14num_attributesEv(ptr noundef nonnull align 8 dereferenceable(164) %13)
  %15 = icmp sge i32 %11, %14
  br i1 %15, label %16, label %17

16:                                               ; preds = %10, %2
  store ptr null, ptr %3, align 8
  br label %33

17:                                               ; preds = %10
  %18 = getelementptr inbounds %"class.draco::PointCloudEncoder", ptr %7, i32 0, i32 3
  %19 = load i32, ptr %5, align 4
  %20 = sext i32 %19 to i64
  %21 = call noundef nonnull align 4 dereferenceable(4) ptr @_ZNSt6vectorIiSaIiEEixEm(ptr noundef nonnull align 8 dereferenceable(24) %18, i64 noundef %20) #3
  %22 = load i32, ptr %21, align 4
  store i32 %22, ptr %6, align 4
  %23 = getelementptr inbounds %"class.draco::PointCloudEncoder", ptr %7, i32 0, i32 2
  %24 = load i32, ptr %6, align 4
  %25 = sext i32 %24 to i64
  %26 = call noundef nonnull align 8 dereferenceable(8) ptr @_ZNSt6vectorISt10unique_ptrIN5draco17AttributesEncoderESt14default_deleteIS2_EESaIS5_EEixEm(ptr noundef nonnull align 8 dereferenceable(24) %23, i64 noundef %25) #3
  %27 = call noundef ptr @_ZNKSt10unique_ptrIN5draco17AttributesEncoderESt14default_deleteIS1_EEptEv(ptr noundef nonnull align 8 dereferenceable(8) %26) #3
  %28 = load i32, ptr %5, align 4
  %29 = load ptr, ptr %27, align 8
  %30 = getelementptr inbounds ptr, ptr %29, i64 9
  %31 = load ptr, ptr %30, align 8
  %32 = call noundef ptr %31(ptr noundef nonnull align 8 dereferenceable(72) %27, i32 noundef %28)
  store ptr %32, ptr %3, align 8
  br label %33

33:                                               ; preds = %17, %16
  %34 = load ptr, ptr %3, align 8
  ret ptr %34
}